; Function Attrs: mustprogress uwtable
define { i64, ptr } @_ZN8facebook5velox15ByteInputStream8nextViewEi(ptr noundef nonnull align 8 dereferenceable(40) %this, i32 noundef %size) local_unnamed_addr #0 align 2 {
entry:
  %current_ = getelementptr inbounds i8, ptr %this, i64 32
  %0 = load ptr, ptr %current_, align 8
  %position = getelementptr inbounds i8, ptr %0, i64 12
  %1 = load i32, ptr %position, align 4
  %size3 = getelementptr inbounds i8, ptr %0, i64 8
  %2 = load i32, ptr %size3, align 8
  %cmp = icmp eq i32 %1, %2
  br i1 %cmp, label %if.then, label %if.end7

if.then:                                          ; preds = %entry
  %_M_finish.i.i = getelementptr inbounds i8, ptr %this, i64 16
  %3 = load ptr, ptr %_M_finish.i.i, align 8
  %add.ptr.i.i = getelementptr inbounds i8, ptr %3, i64 -16
  %cmp5 = icmp eq ptr %0, %add.ptr.i.i
  br i1 %cmp5, label %return, label %if.end

if.end:                                           ; preds = %if.then
  %vtable = load ptr, ptr %this, align 8
  %vfn = getelementptr inbounds i8, ptr %vtable, i64 24
  %4 = load ptr, ptr %vfn, align 8
  tail call void %4(ptr noundef nonnull align 8 dereferenceable(40) %this, i1 noundef zeroext true)
  %.pre = load ptr, ptr %current_, align 8
  %size9.phi.trans.insert = getelementptr inbounds i8, ptr %.pre, i64 8
  %.pre5 = load i32, ptr %size9.phi.trans.insert, align 8
  br label %if.end7

if.end7:                                          ; preds = %if.end, %entry
  %5 = phi i32 [ %.pre5, %if.end ], [ %2, %entry ]
  %6 = phi ptr [ %.pre, %if.end ], [ %0, %entry ]
  %tobool.not = icmp eq i32 %5, 0
  br i1 %tobool.not, label %if.then10, label %if.end11

if.then10:                                        ; preds = %if.end7
  tail call void @llvm.trap()
  unreachable

if.end11:                                         ; preds = %if.end7
  %position14 = getelementptr inbounds i8, ptr %6, i64 12
  %7 = load i32, ptr %position14, align 4
  %sub = sub nsw i32 %5, %7
  %.sroa.speculated = tail call i32 @llvm.smin.i32(i32 %sub, i32 %size)
  %add = add nsw i32 %.sroa.speculated, %7
  store i32 %add, ptr %position14, align 4
  %8 = load ptr, ptr %current_, align 8
  %9 = load ptr, ptr %8, align 8
  %idx.ext = sext i32 %7 to i64
  %add.ptr = getelementptr inbounds i8, ptr %9, i64 %idx.ext
  %conv = sext i32 %.sroa.speculated to i64
  br label %return

return:                                           ; preds = %if.then, %if.end11
  %retval.sroa.0.0 = phi i64 [ %conv, %if.end11 ], [ 0, %if.then ]
  %retval.sroa.3.0 = phi ptr [ %add.ptr, %if.end11 ], [ null, %if.then ]
  %.fca.0.insert = insertvalue { i64, ptr } poison, i64 %retval.sroa.0.0, 0
  %.fca.1.insert = insertvalue { i64, ptr } %.fca.0.insert, ptr %retval.sroa.3.0, 1
  ret { i64, ptr } %.fca.1.insert
}